target datalayout = "e-m:e-p270:32:32-p271:32:32-p272:64:64-i64:64-i128:128-f80:128-n8:16:32:64-S128"
target triple = "x86_64-pc-linux-gnu"

%struct.AVChannelLayout = type { i32, i32, %union.anon, ptr }
%union.anon = type { i64 }
%struct.AVFormatContext = type { ptr, ptr, ptr, ptr, ptr, i32, i32, ptr, i32, ptr, i32, ptr, ptr, i64, i64, i64, i32, i32, i32, i64, i64, ptr, i32, i32, ptr, i32, i32, i32, i32, ptr, i64, i32, i32, %struct.AVIOInterruptCB, i32, i32, i32, i32, i64, i32, i32, i32, i32, i32, i32, i32, i32, i32, i32, i32, i32, i64, i32, i32, i32, i32, i32, ptr, ptr, ptr, ptr, i32, ptr, ptr, ptr, ptr, i32, ptr, ptr, i64, ptr, ptr, ptr, i64 }
%struct.AVIOInterruptCB = type { ptr, ptr }
%struct.OMAContext = type { i64, i32, i16, i16, i16, i16, i32, [24 x i8], [24 x i8], [8 x i8], [8 x i8], [8 x i8], [8 x i8], [8 x i8], ptr, ptr }
%struct.AVStream = type { ptr, i32, i32, ptr, ptr, %struct.AVRational, i64, i64, i64, i32, i32, %struct.AVRational, ptr, %struct.AVRational, %struct.AVPacket, i32, %struct.AVRational, i32 }
%struct.AVPacket = type { ptr, i64, i64, ptr, i32, i32, i32, ptr, i32, i64, i64, ptr, ptr, %struct.AVRational }
%struct.AVRational = type { i32, i32 }
%struct.AVCodecParameters = type { i32, i32, i32, ptr, i32, ptr, i32, i32, i64, i32, i32, i32, i32, i32, i32, %struct.AVRational, %struct.AVRational, i32, i32, i32, i32, i32, i32, i32, %struct.AVChannelLayout, i32, i32, i32, i32, i32, i32 }

; Function Attrs: alwaysinline nounwind uwtable
define internal i64 @avio_tell(ptr noundef %0) #4 {
  %2 = alloca ptr, align 8
  store ptr %0, ptr %2, align 8, !tbaa !86
  %3 = load ptr, ptr %2, align 8, !tbaa !86
  %4 = call i64 @avio_seek(ptr noundef %3, i64 noundef 0, i32 noundef 1)
  ret i64 %4
}

; Function Attrs: nounwind uwtable
define internal i32 @read_packet(ptr noundef %0, ptr noundef %1) #0 {
  %3 = alloca i32, align 4
  %4 = alloca ptr, align 8
  %5 = alloca ptr, align 8
  %6 = alloca ptr, align 8
  %7 = alloca ptr, align 8
  %8 = alloca i32, align 4
  %9 = alloca i32, align 4
  %10 = alloca i64, align 8
  %11 = alloca i32, align 4
  %12 = alloca i32, align 4
  store ptr %0, ptr %4, align 8, !tbaa !17
  store ptr %1, ptr %5, align 8, !tbaa !81
  call void @llvm.lifetime.start.p0(i64 8, ptr %6) #9
  %13 = load ptr, ptr %4, align 8, !tbaa !17
  %14 = getelementptr inbounds nuw %struct.AVFormatContext, ptr %13, i32 0, i32 3
  %15 = load ptr, ptr %14, align 8, !tbaa !19
  store ptr %15, ptr %6, align 8, !tbaa !34
  call void @llvm.lifetime.start.p0(i64 8, ptr %7) #9
  %16 = load ptr, ptr %4, align 8, !tbaa !17
  %17 = getelementptr inbounds nuw %struct.AVFormatContext, ptr %16, i32 0, i32 7
  %18 = load ptr, ptr %17, align 8, !tbaa !84
  %19 = getelementptr inbounds ptr, ptr %18, i64 0
  %20 = load ptr, ptr %19, align 8, !tbaa !44
  store ptr %20, ptr %7, align 8, !tbaa !44
  call void @llvm.lifetime.start.p0(i64 4, ptr %8) #9
  %21 = load ptr, ptr %7, align 8, !tbaa !44
  %22 = getelementptr inbounds nuw %struct.AVStream, ptr %21, i32 0, i32 3
  %23 = load ptr, ptr %22, align 8, !tbaa !53
  %24 = getelementptr inbounds nuw %struct.AVCodecParameters, ptr %23, i32 0, i32 26
  %25 = load i32, ptr %24, align 4, !tbaa !80
  store i32 %25, ptr %8, align 4, !tbaa !14
  call void @llvm.lifetime.start.p0(i64 4, ptr %9) #9
  %26 = load ptr, ptr %7, align 8, !tbaa !44
  %27 = getelementptr inbounds nuw %struct.AVStream, ptr %26, i32 0, i32 3
  %28 = load ptr, ptr %27, align 8, !tbaa !53
  %29 = getelementptr inbounds nuw %struct.AVCodecParameters, ptr %28, i32 0, i32 8
  %30 = load i64, ptr %29, align 8, !tbaa !66
  %31 = ashr i64 %30, 3
  %32 = trunc i64 %31 to i32
  store i32 %32, ptr %9, align 4, !tbaa !14
  call void @llvm.lifetime.start.p0(i64 8, ptr %10) #9
  %33 = load ptr, ptr %4, align 8, !tbaa !17
  %34 = getelementptr inbounds nuw %struct.AVFormatContext, ptr %33, i32 0, i32 4
  %35 = load ptr, ptr %34, align 8, !tbaa !38
  %36 = call i64 @avio_tell(ptr noundef %35)
  store i64 %36, ptr %10, align 8, !tbaa !83
  call void @llvm.lifetime.start.p0(i64 4, ptr %11) #9
  %37 = load ptr, ptr %4, align 8, !tbaa !17
  %38 = getelementptr inbounds nuw %struct.AVFormatContext, ptr %37, i32 0, i32 4
  %39 = load ptr, ptr %38, align 8, !tbaa !38
  %40 = load ptr, ptr %5, align 8, !tbaa !81
  %41 = load i32, ptr %8, align 4, !tbaa !14
  %42 = call i32 @av_get_packet(ptr noundef %39, ptr noundef %40, i32 noundef %41)
  store i32 %42, ptr %11, align 4, !tbaa !14
  %43 = load i32, ptr %11, align 4, !tbaa !14
  %44 = load i32, ptr %8, align 4, !tbaa !14
  %45 = icmp slt i32 %43, %44
  br i1 %45, label %46, label %51

46:                                               ; preds = %2
  %47 = load ptr, ptr %5, align 8, !tbaa !81
  %48 = getelementptr inbounds nuw %struct.AVPacket, ptr %47, i32 0, i32 6
  %49 = load i32, ptr %48, align 8, !tbaa !107
  %50 = or i32 %49, 2
  store i32 %50, ptr %48, align 8, !tbaa !107
  br label %51

51:                                               ; preds = %46, %2
  %52 = load i32, ptr %11, align 4, !tbaa !14
  %53 = icmp slt i32 %52, 0
  br i1 %53, label %54, label %56

54:                                               ; preds = %51
  %55 = load i32, ptr %11, align 4, !tbaa !14
  store i32 %55, ptr %3, align 4
  store i32 1, ptr %12, align 4
  br label %126

56:                                               ; preds = %51
  %57 = load i32, ptr %11, align 4, !tbaa !14
  %58 = icmp ne i32 %57, 0
  br i1 %58, label %60, label %59

59:                                               ; preds = %56
  store i32 -541478725, ptr %3, align 4
  store i32 1, ptr %12, align 4
  br label %126

60:                                               ; preds = %56
  %61 = load ptr, ptr %5, align 8, !tbaa !81
  %62 = getelementptr inbounds nuw %struct.AVPacket, ptr %61, i32 0, i32 5
  store i32 0, ptr %62, align 4, !tbaa !108
  %63 = load i64, ptr %10, align 8, !tbaa !83
  %64 = load ptr, ptr %6, align 8, !tbaa !34
  %65 = getelementptr inbounds nuw %struct.OMAContext, ptr %64, i32 0, i32 0
  %66 = load i64, ptr %65, align 8, !tbaa !39
  %67 = icmp uge i64 %63, %66
  br i1 %67, label %68, label %95

68:                                               ; preds = %60
  %69 = load i32, ptr %9, align 4, !tbaa !14
  %70 = icmp sgt i32 %69, 0
  br i1 %70, label %71, label %95

71:                                               ; preds = %68
  %72 = load i64, ptr %10, align 8, !tbaa !83
  %73 = load ptr, ptr %6, align 8, !tbaa !34
  %74 = getelementptr inbounds nuw %struct.OMAContext, ptr %73, i32 0, i32 0
  %75 = load i64, ptr %74, align 8, !tbaa !39
  %76 = sub i64 %72, %75
  %77 = load ptr, ptr %7, align 8, !tbaa !44
  %78 = getelementptr inbounds nuw %struct.AVStream, ptr %77, i32 0, i32 5
  %79 = getelementptr inbounds nuw %struct.AVRational, ptr %78, i32 0, i32 1
  %80 = load i32, ptr %79, align 4, !tbaa !109
  %81 = sext i32 %80 to i64
  %82 = load i32, ptr %9, align 4, !tbaa !14
  %83 = sext i32 %82 to i64
  %84 = load ptr, ptr %7, align 8, !tbaa !44
  %85 = getelementptr inbounds nuw %struct.AVStream, ptr %84, i32 0, i32 5
  %86 = getelementptr inbounds nuw %struct.AVRational, ptr %85, i32 0, i32 0
  %87 = load i32, ptr %86, align 8, !tbaa !110
  %88 = sext i32 %87 to i64
  %89 = mul nsw i64 %83, %88
  %90 = call i64 @av_rescale(i64 noundef %76, i64 noundef %81, i64 noundef %89) #11
  %91 = load ptr, ptr %5, align 8, !tbaa !81
  %92 = getelementptr inbounds nuw %struct.AVPacket, ptr %91, i32 0, i32 2
  store i64 %90, ptr %92, align 8, !tbaa !111
  %93 = load ptr, ptr %5, align 8, !tbaa !81
  %94 = getelementptr inbounds nuw %struct.AVPacket, ptr %93, i32 0, i32 1
  store i64 %90, ptr %94, align 8, !tbaa !112
  br label %95

95:                                               ; preds = %71, %68, %60
  %96 = load ptr, ptr %6, align 8, !tbaa !34
  %97 = getelementptr inbounds nuw %struct.OMAContext, ptr %96, i32 0, i32 1
  %98 = load i32, ptr %97, align 8, !tbaa !85
  %99 = icmp ne i32 %98, 0
  br i1 %99, label %100, label %124

100:                                              ; preds = %95
  %101 = load i32, ptr %11, align 4, !tbaa !14
  %102 = load i32, ptr %8, align 4, !tbaa !14
  %103 = icmp eq i32 %101, %102
  br i1 %103, label %104, label %119

104:                                              ; preds = %100
  %105 = load ptr, ptr %6, align 8, !tbaa !34
  %106 = getelementptr inbounds nuw %struct.OMAContext, ptr %105, i32 0, i32 14
  %107 = load ptr, ptr %106, align 8, !tbaa !106
  %108 = load ptr, ptr %5, align 8, !tbaa !81
  %109 = getelementptr inbounds nuw %struct.AVPacket, ptr %108, i32 0, i32 3
  %110 = load ptr, ptr %109, align 8, !tbaa !113
  %111 = load ptr, ptr %5, align 8, !tbaa !81
  %112 = getelementptr inbounds nuw %struct.AVPacket, ptr %111, i32 0, i32 3
  %113 = load ptr, ptr %112, align 8, !tbaa !113
  %114 = load i32, ptr %8, align 4, !tbaa !14
  %115 = ashr i32 %114, 3
  %116 = load ptr, ptr %6, align 8, !tbaa !34
  %117 = getelementptr inbounds nuw %struct.OMAContext, ptr %116, i32 0, i32 13
  %118 = getelementptr inbounds [8 x i8], ptr %117, i64 0, i64 0
  call void @av_des_crypt(ptr noundef %107, ptr noundef %110, ptr noundef %113, i32 noundef %115, ptr noundef %118, i32 noundef 1)
  br label %123

119:                                              ; preds = %100
  %120 = load ptr, ptr %6, align 8, !tbaa !34
  %121 = getelementptr inbounds nuw %struct.OMAContext, ptr %120, i32 0, i32 13
  %122 = getelementptr inbounds [8 x i8], ptr %121, i64 0, i64 0
  call void @llvm.memset.p0.i64(ptr align 8 %122, i8 0, i64 8, i1 false)
  br label %123

123:                                              ; preds = %119, %104
  br label %124

124:                                              ; preds = %123, %95
  %125 = load i32, ptr %11, align 4, !tbaa !14
  store i32 %125, ptr %3, align 4
  store i32 1, ptr %12, align 4
  br label %126

126:                                              ; preds = %124, %59, %54
  call void @llvm.lifetime.end.p0(i64 4, ptr %11) #9
  call void @llvm.lifetime.end.p0(i64 8, ptr %10) #9
  call void @llvm.lifetime.end.p0(i64 4, ptr %9) #9
  call void @llvm.lifetime.end.p0(i64 4, ptr %8) #9
  call void @llvm.lifetime.end.p0(i64 8, ptr %7) #9
  call void @llvm.lifetime.end.p0(i64 8, ptr %6) #9
  %127 = load i32, ptr %3, align 4
  ret i32 %127
}