; Function Attrs: nounwind uwtable
define internal range(i32 1, 0) i32 @read_packet(ptr noundef readonly captures(none) %0, ptr noundef %1) #0 {
  %3 = getelementptr inbounds nuw i8, ptr %0, i64 24
  %4 = load ptr, ptr %3, align 8, !tbaa !13
  %5 = getelementptr inbounds nuw i8, ptr %0, i64 48
  %6 = load ptr, ptr %5, align 8, !tbaa !89
  %7 = load ptr, ptr %6, align 8, !tbaa !90
  %8 = getelementptr inbounds nuw i8, ptr %7, i64 16
  %9 = load ptr, ptr %8, align 8, !tbaa !62
  %10 = getelementptr inbounds nuw i8, ptr %9, i64 156
  %11 = load i32, ptr %10, align 4, !tbaa !88
  %12 = getelementptr inbounds nuw i8, ptr %9, i64 48
  %13 = load i64, ptr %12, align 8, !tbaa !73
  %14 = lshr i64 %13, 3
  %15 = trunc i64 %14 to i32
  %16 = getelementptr inbounds nuw i8, ptr %0, i64 32
  %17 = load ptr, ptr %16, align 8, !tbaa !30
  %18 = tail call i64 @avio_seek(ptr noundef %17, i64 noundef 0, i32 noundef 1) #9
  %19 = load ptr, ptr %16, align 8, !tbaa !30
  %20 = tail call i32 @av_get_packet(ptr noundef %19, ptr noundef %1, i32 noundef %11) #9
  %21 = icmp slt i32 %20, %11
  br i1 %21, label %22, label %26

22:                                               ; preds = %2
  %23 = getelementptr inbounds nuw i8, ptr %1, i64 40
  %24 = load i32, ptr %23, align 8, !tbaa !92
  %25 = or i32 %24, 2
  store i32 %25, ptr %23, align 8, !tbaa !92
  br label %26

26:                                               ; preds = %22, %2
  %27 = icmp slt i32 %20, 0
  br i1 %27, label %61, label %28

28:                                               ; preds = %26
  %.not = icmp eq i32 %20, 0
  br i1 %.not, label %61, label %29

29:                                               ; preds = %28
  %30 = getelementptr inbounds nuw i8, ptr %1, i64 36
  store i32 0, ptr %30, align 4, !tbaa !93
  %31 = load i64, ptr %4, align 8, !tbaa !31
  %32 = icmp uge i64 %18, %31
  %33 = icmp sgt i32 %15, 0
  %or.cond = select i1 %32, i1 %33, i1 false
  br i1 %or.cond, label %34, label %47

34:                                               ; preds = %29
  %35 = sub nuw i64 %18, %31
  %36 = getelementptr inbounds nuw i8, ptr %7, i64 32
  %37 = getelementptr inbounds nuw i8, ptr %7, i64 36
  %38 = load i32, ptr %37, align 4, !tbaa !94
  %39 = sext i32 %38 to i64
  %40 = and i64 %14, 2147483647
  %41 = load i32, ptr %36, align 8, !tbaa !95
  %42 = sext i32 %41 to i64
  %43 = mul nsw i64 %40, %42
  %44 = tail call i64 @av_rescale(i64 noundef %35, i64 noundef %39, i64 noundef %43) #11
  %45 = getelementptr inbounds nuw i8, ptr %1, i64 16
  store i64 %44, ptr %45, align 8, !tbaa !96
  %46 = getelementptr inbounds nuw i8, ptr %1, i64 8
  store i64 %44, ptr %46, align 8, !tbaa !97
  br label %47

47:                                               ; preds = %34, %29
  %48 = getelementptr inbounds nuw i8, ptr %4, i64 8
  %49 = load i32, ptr %48, align 8, !tbaa !35
  %.not41 = icmp eq i32 %49, 0
  br i1 %.not41, label %61, label %50

50:                                               ; preds = %47
  %51 = icmp eq i32 %20, %11
  br i1 %51, label %52, label %59

52:                                               ; preds = %50
  %53 = getelementptr inbounds nuw i8, ptr %4, i64 112
  %54 = load ptr, ptr %53, align 8, !tbaa !54
  %55 = getelementptr inbounds nuw i8, ptr %1, i64 24
  %56 = load ptr, ptr %55, align 8, !tbaa !98
  %57 = lshr i32 %11, 3
  %58 = getelementptr inbounds nuw i8, ptr %4, i64 104
  tail call void @av_des_crypt(ptr noundef %54, ptr noundef %56, ptr noundef %56, i32 noundef %57, ptr noundef nonnull %58, i32 noundef 1) #9
  br label %61

59:                                               ; preds = %50
  %60 = getelementptr inbounds nuw i8, ptr %4, i64 104
  store i64 0, ptr %60, align 8
  br label %61

61:                                               ; preds = %47, %59, %52, %28, %26
  %.0 = phi i32 [ %20, %26 ], [ -541478725, %28 ], [ %11, %52 ], [ %20, %59 ], [ %20, %47 ]
  ret i32 %.0
}